; ModuleID = 'source-C-CXX/10/958.cpp'
source_filename = "source-C-CXX/10/958.cpp"
target datalayout = "e-m:e-p270:32:32-p271:32:32-p272:64:64-i64:64-f80:128-n8:16:32:64-S128"
target triple = "x86_64-pc-linux-gnu"

%"class.std::ios_base::Init" = type { i8 }
%"class.std::basic_istream" = type { i32 (...)**, i64, %"class.std::basic_ios" }
%"class.std::basic_ios" = type { %"class.std::ios_base", %"class.std::basic_ostream"*, i8, i8, %"class.std::basic_streambuf"*, %"class.std::ctype"*, %"class.std::num_put"*, %"class.std::num_get"* }
%"class.std::ios_base" = type { i32 (...)**, i64, i64, i32, i32, i32, %"struct.std::ios_base::_Callback_list"*, %"struct.std::ios_base::_Words", [8 x %"struct.std::ios_base::_Words"], i32, %"struct.std::ios_base::_Words"*, %"class.std::locale" }
%"struct.std::ios_base::_Callback_list" = type { %"struct.std::ios_base::_Callback_list"*, void (i32, %"class.std::ios_base"*, i32)*, i32, i32 }
%"struct.std::ios_base::_Words" = type { i8*, i64 }
%"class.std::locale" = type { %"class.std::locale::_Impl"* }
%"class.std::locale::_Impl" = type { i32, %"class.std::locale::facet"**, i64, %"class.std::locale::facet"**, i8** }
%"class.std::locale::facet" = type <{ i32 (...)**, i32, [4 x i8] }>
%"class.std::basic_ostream" = type { i32 (...)**, %"class.std::basic_ios" }
%"class.std::basic_streambuf" = type { i32 (...)**, i8*, i8*, i8*, i8*, i8*, i8*, %"class.std::locale" }
%"class.std::ctype" = type <{ %"class.std::locale::facet.base", [4 x i8], %struct.__locale_struct*, i8, [7 x i8], i32*, i32*, i16*, i8, [256 x i8], [256 x i8], i8, [6 x i8] }>
%"class.std::locale::facet.base" = type <{ i32 (...)**, i32 }>
%struct.__locale_struct = type { [13 x %struct.__locale_data*], i16*, i32*, i32*, [13 x i8*] }
%struct.__locale_data = type opaque
%"class.std::num_put" = type { %"class.std::locale::facet.base", [4 x i8] }
%"class.std::num_get" = type { %"class.std::locale::facet.base", [4 x i8] }

@_ZStL8__ioinit = internal global %"class.std::ios_base::Init" zeroinitializer, align 1
@__dso_handle = external hidden global i8
@__const.main.daymonth = private unnamed_addr constant [2 x [12 x i32]] [[12 x i32] [i32 31, i32 28, i32 31, i32 30, i32 31, i32 30, i32 31, i32 31, i32 30, i32 31, i32 30, i32 31], [12 x i32] [i32 31, i32 29, i32 31, i32 30, i32 31, i32 30, i32 31, i32 31, i32 30, i32 31, i32 30, i32 31]], align 16
@_ZSt3cin = external global %"class.std::basic_istream", align 8
@_ZSt4cout = external global %"class.std::basic_ostream", align 8
@llvm.global_ctors = appending global [1 x { i32, void ()*, i8* }] [{ i32, void ()*, i8* } { i32 65535, void ()* @_GLOBAL__sub_I_958.cpp, i8* null }]

declare void @_ZNSt8ios_base4InitC1Ev(%"class.std::ios_base::Init"* nonnull align 1 dereferenceable(1)) unnamed_addr #0

; Function Attrs: nounwind
declare void @_ZNSt8ios_base4InitD1Ev(%"class.std::ios_base::Init"* nonnull align 1 dereferenceable(1)) unnamed_addr #1

; Function Attrs: nofree nounwind
declare i32 @__cxa_atexit(void (i8*)*, i8*, i8*) local_unnamed_addr #2

; Function Attrs: mustprogress norecurse sspstrong uwtable
define dso_local i32 @main() local_unnamed_addr #3 {
  %1 = alloca i32, align 4
  %2 = alloca i32, align 4
  %3 = alloca i32, align 4
  %4 = bitcast i32* %1 to i8*
  call void @llvm.lifetime.start.p0i8(i64 4, i8* nonnull %4) #9
  %5 = bitcast i32* %2 to i8*
  call void @llvm.lifetime.start.p0i8(i64 4, i8* nonnull %5) #9
  %6 = bitcast i32* %3 to i8*
  call void @llvm.lifetime.start.p0i8(i64 4, i8* nonnull %6) #9
  %7 = call nonnull align 8 dereferenceable(16) %"class.std::basic_istream"* @_ZNSirsERi(%"class.std::basic_istream"* nonnull align 8 dereferenceable(16) @_ZSt3cin, i32* nonnull align 4 dereferenceable(4) %1)
  %8 = call nonnull align 8 dereferenceable(16) %"class.std::basic_istream"* @_ZNSirsERi(%"class.std::basic_istream"* nonnull align 8 dereferenceable(16) %7, i32* nonnull align 4 dereferenceable(4) %2)
  %9 = call nonnull align 8 dereferenceable(16) %"class.std::basic_istream"* @_ZNSirsERi(%"class.std::basic_istream"* nonnull align 8 dereferenceable(16) %8, i32* nonnull align 4 dereferenceable(4) %3)
  %10 = load i32, i32* %2, align 4, !tbaa !5
  %11 = load i32, i32* %1, align 4
  %12 = and i32 %11, 3
  %13 = icmp eq i32 %12, 0
  %14 = srem i32 %11, 100
  %15 = icmp ne i32 %14, 0
  %16 = and i1 %13, %15
  %17 = srem i32 %11, 400
  %18 = icmp eq i32 %17, 0
  %19 = select i1 %16, i1 true, i1 %18
  %20 = zext i1 %19 to i64
  %21 = icmp sgt i32 %10, 1
  br i1 %21, label %22, label %118

22:                                               ; preds = %0
  %23 = add nsw i32 %10, -1
  %24 = zext i32 %23 to i64
  %25 = icmp ult i32 %23, 8
  br i1 %25, label %107, label %26

26:                                               ; preds = %22
  %27 = and i64 %24, 4294967288
  %28 = add nsw i64 %27, -8
  %29 = lshr exact i64 %28, 3
  %30 = add nuw nsw i64 %29, 1
  %31 = and i64 %30, 3
  %32 = icmp ult i64 %28, 24
  br i1 %32, label %78, label %33

33:                                               ; preds = %26
  %34 = and i64 %30, 4611686018427387900
  br label %35

35:                                               ; preds = %35, %33
  %36 = phi i64 [ 0, %33 ], [ %75, %35 ]
  %37 = phi <4 x i32> [ zeroinitializer, %33 ], [ %73, %35 ]
  %38 = phi <4 x i32> [ zeroinitializer, %33 ], [ %74, %35 ]
  %39 = phi i64 [ %34, %33 ], [ %76, %35 ]
  %40 = getelementptr inbounds [2 x [12 x i32]], [2 x [12 x i32]]* @__const.main.daymonth, i64 0, i64 %20, i64 %36
  %41 = bitcast i32* %40 to <4 x i32>*
  %42 = load <4 x i32>, <4 x i32>* %41, align 16, !tbaa !5
  %43 = getelementptr inbounds i32, i32* %40, i64 4
  %44 = bitcast i32* %43 to <4 x i32>*
  %45 = load <4 x i32>, <4 x i32>* %44, align 16, !tbaa !5
  %46 = add <4 x i32> %42, %37
  %47 = add <4 x i32> %45, %38
  %48 = or i64 %36, 8
  %49 = getelementptr inbounds [2 x [12 x i32]], [2 x [12 x i32]]* @__const.main.daymonth, i64 0, i64 %20, i64 %48
  %50 = bitcast i32* %49 to <4 x i32>*
  %51 = load <4 x i32>, <4 x i32>* %50, align 16, !tbaa !5
  %52 = getelementptr inbounds i32, i32* %49, i64 4
  %53 = bitcast i32* %52 to <4 x i32>*
  %54 = load <4 x i32>, <4 x i32>* %53, align 16, !tbaa !5
  %55 = add <4 x i32> %51, %46
  %56 = add <4 x i32> %54, %47
  %57 = or i64 %36, 16
  %58 = getelementptr inbounds [2 x [12 x i32]], [2 x [12 x i32]]* @__const.main.daymonth, i64 0, i64 %20, i64 %57
  %59 = bitcast i32* %58 to <4 x i32>*
  %60 = load <4 x i32>, <4 x i32>* %59, align 16, !tbaa !5
  %61 = getelementptr inbounds i32, i32* %58, i64 4
  %62 = bitcast i32* %61 to <4 x i32>*
  %63 = load <4 x i32>, <4 x i32>* %62, align 16, !tbaa !5
  %64 = add <4 x i32> %60, %55
  %65 = add <4 x i32> %63, %56
  %66 = or i64 %36, 24
  %67 = getelementptr inbounds [2 x [12 x i32]], [2 x [12 x i32]]* @__const.main.daymonth, i64 0, i64 %20, i64 %66
  %68 = bitcast i32* %67 to <4 x i32>*
  %69 = load <4 x i32>, <4 x i32>* %68, align 16, !tbaa !5
  %70 = getelementptr inbounds i32, i32* %67, i64 4
  %71 = bitcast i32* %70 to <4 x i32>*
  %72 = load <4 x i32>, <4 x i32>* %71, align 16, !tbaa !5
  %73 = add <4 x i32> %69, %64
  %74 = add <4 x i32> %72, %65
  %75 = add nuw i64 %36, 32
  %76 = add i64 %39, -4
  %77 = icmp eq i64 %76, 0
  br i1 %77, label %78, label %35, !llvm.loop !9

78:                                               ; preds = %35, %26
  %79 = phi <4 x i32> [ undef, %26 ], [ %73, %35 ]
  %80 = phi <4 x i32> [ undef, %26 ], [ %74, %35 ]
  %81 = phi i64 [ 0, %26 ], [ %75, %35 ]
  %82 = phi <4 x i32> [ zeroinitializer, %26 ], [ %73, %35 ]
  %83 = phi <4 x i32> [ zeroinitializer, %26 ], [ %74, %35 ]
  %84 = icmp eq i64 %31, 0
  br i1 %84, label %101, label %85

85:                                               ; preds = %78, %85
  %86 = phi i64 [ %98, %85 ], [ %81, %78 ]
  %87 = phi <4 x i32> [ %96, %85 ], [ %82, %78 ]
  %88 = phi <4 x i32> [ %97, %85 ], [ %83, %78 ]
  %89 = phi i64 [ %99, %85 ], [ %31, %78 ]
  %90 = getelementptr inbounds [2 x [12 x i32]], [2 x [12 x i32]]* @__const.main.daymonth, i64 0, i64 %20, i64 %86
  %91 = bitcast i32* %90 to <4 x i32>*
  %92 = load <4 x i32>, <4 x i32>* %91, align 16, !tbaa !5
  %93 = getelementptr inbounds i32, i32* %90, i64 4
  %94 = bitcast i32* %93 to <4 x i32>*
  %95 = load <4 x i32>, <4 x i32>* %94, align 16, !tbaa !5
  %96 = add <4 x i32> %92, %87
  %97 = add <4 x i32> %95, %88
  %98 = add nuw i64 %86, 8
  %99 = add i64 %89, -1
  %100 = icmp eq i64 %99, 0
  br i1 %100, label %101, label %85, !llvm.loop !12

101:                                              ; preds = %85, %78
  %102 = phi <4 x i32> [ %79, %78 ], [ %96, %85 ]
  %103 = phi <4 x i32> [ %80, %78 ], [ %97, %85 ]
  %104 = add <4 x i32> %103, %102
  %105 = call i32 @llvm.vector.reduce.add.v4i32(<4 x i32> %104)
  %106 = icmp eq i64 %27, %24
  br i1 %106, label %118, label %107

107:                                              ; preds = %22, %101
  %108 = phi i64 [ 0, %22 ], [ %27, %101 ]
  %109 = phi i32 [ 0, %22 ], [ %105, %101 ]
  br label %110

110:                                              ; preds = %107, %110
  %111 = phi i64 [ %116, %110 ], [ %108, %107 ]
  %112 = phi i32 [ %115, %110 ], [ %109, %107 ]
  %113 = getelementptr inbounds [2 x [12 x i32]], [2 x [12 x i32]]* @__const.main.daymonth, i64 0, i64 %20, i64 %111
  %114 = load i32, i32* %113, align 4, !tbaa !5
  %115 = add nsw i32 %114, %112
  %116 = add nuw nsw i64 %111, 1
  %117 = icmp eq i64 %116, %24
  br i1 %117, label %118, label %110, !llvm.loop !14

118:                                              ; preds = %110, %101, %0
  %119 = phi i32 [ 0, %0 ], [ %105, %101 ], [ %115, %110 ]
  %120 = load i32, i32* %3, align 4, !tbaa !5
  %121 = add nsw i32 %120, %119
  %122 = call nonnull align 8 dereferenceable(8) %"class.std::basic_ostream"* @_ZNSolsEi(%"class.std::basic_ostream"* nonnull align 8 dereferenceable(8) @_ZSt4cout, i32 %121)
  %123 = bitcast %"class.std::basic_ostream"* %122 to i8**
  %124 = load i8*, i8** %123, align 8, !tbaa !16
  %125 = getelementptr i8, i8* %124, i64 -24
  %126 = bitcast i8* %125 to i64*
  %127 = load i64, i64* %126, align 8
  %128 = bitcast %"class.std::basic_ostream"* %122 to i8*
  %129 = add nsw i64 %127, 240
  %130 = getelementptr inbounds i8, i8* %128, i64 %129
  %131 = bitcast i8* %130 to %"class.std::ctype"**
  %132 = load %"class.std::ctype"*, %"class.std::ctype"** %131, align 8, !tbaa !18
  %133 = icmp eq %"class.std::ctype"* %132, null
  br i1 %133, label %134, label %135

134:                                              ; preds = %118
  call void @_ZSt16__throw_bad_castv() #10
  unreachable

135:                                              ; preds = %118
  %136 = getelementptr inbounds %"class.std::ctype", %"class.std::ctype"* %132, i64 0, i32 8
  %137 = load i8, i8* %136, align 8, !tbaa !22
  %138 = icmp eq i8 %137, 0
  br i1 %138, label %142, label %139

139:                                              ; preds = %135
  %140 = getelementptr inbounds %"class.std::ctype", %"class.std::ctype"* %132, i64 0, i32 9, i64 10
  %141 = load i8, i8* %140, align 1, !tbaa !24
  br label %148

142:                                              ; preds = %135
  call void @_ZNKSt5ctypeIcE13_M_widen_initEv(%"class.std::ctype"* nonnull align 8 dereferenceable(570) %132)
  %143 = bitcast %"class.std::ctype"* %132 to i8 (%"class.std::ctype"*, i8)***
  %144 = load i8 (%"class.std::ctype"*, i8)**, i8 (%"class.std::ctype"*, i8)*** %143, align 8, !tbaa !16
  %145 = getelementptr inbounds i8 (%"class.std::ctype"*, i8)*, i8 (%"class.std::ctype"*, i8)** %144, i64 6
  %146 = load i8 (%"class.std::ctype"*, i8)*, i8 (%"class.std::ctype"*, i8)** %145, align 8
  %147 = call signext i8 %146(%"class.std::ctype"* nonnull align 8 dereferenceable(570) %132, i8 signext 10)
  br label %148

148:                                              ; preds = %139, %142
  %149 = phi i8 [ %141, %139 ], [ %147, %142 ]
  %150 = call nonnull align 8 dereferenceable(8) %"class.std::basic_ostream"* @_ZNSo3putEc(%"class.std::basic_ostream"* nonnull align 8 dereferenceable(8) %122, i8 signext %149)
  %151 = call nonnull align 8 dereferenceable(8) %"class.std::basic_ostream"* @_ZNSo5flushEv(%"class.std::basic_ostream"* nonnull align 8 dereferenceable(8) %150)
  call void @llvm.lifetime.end.p0i8(i64 4, i8* nonnull %6) #9
  call void @llvm.lifetime.end.p0i8(i64 4, i8* nonnull %5) #9
  call void @llvm.lifetime.end.p0i8(i64 4, i8* nonnull %4) #9
  ret i32 0
}

; Function Attrs: argmemonly mustprogress nofree nosync nounwind willreturn
declare void @llvm.lifetime.start.p0i8(i64 immarg, i8* nocapture) #4

declare nonnull align 8 dereferenceable(16) %"class.std::basic_istream"* @_ZNSirsERi(%"class.std::basic_istream"* nonnull align 8 dereferenceable(16), i32* nonnull align 4 dereferenceable(4)) local_unnamed_addr #0

; Function Attrs: mustprogress nofree norecurse nosync nounwind readnone sspstrong uwtable willreturn
define dso_local i32 @_Z4leapi(i32 %0) local_unnamed_addr #5 {
  %2 = and i32 %0, 3
  %3 = icmp eq i32 %2, 0
  %4 = srem i32 %0, 100
  %5 = icmp ne i32 %4, 0
  %6 = and i1 %3, %5
  %7 = srem i32 %0, 400
  %8 = icmp eq i32 %7, 0
  %9 = select i1 %6, i1 true, i1 %8
  %10 = zext i1 %9 to i32
  ret i32 %10
}

declare nonnull align 8 dereferenceable(8) %"class.std::basic_ostream"* @_ZNSolsEi(%"class.std::basic_ostream"* nonnull align 8 dereferenceable(8), i32) local_unnamed_addr #0

; Function Attrs: argmemonly mustprogress nofree nosync nounwind willreturn
declare void @llvm.lifetime.end.p0i8(i64 immarg, i8* nocapture) #4

declare nonnull align 8 dereferenceable(8) %"class.std::basic_ostream"* @_ZNSo3putEc(%"class.std::basic_ostream"* nonnull align 8 dereferenceable(8), i8 signext) local_unnamed_addr #0

declare nonnull align 8 dereferenceable(8) %"class.std::basic_ostream"* @_ZNSo5flushEv(%"class.std::basic_ostream"* nonnull align 8 dereferenceable(8)) local_unnamed_addr #0

; Function Attrs: noreturn
declare void @_ZSt16__throw_bad_castv() local_unnamed_addr #6

declare void @_ZNKSt5ctypeIcE13_M_widen_initEv(%"class.std::ctype"* nonnull align 8 dereferenceable(570)) local_unnamed_addr #0

; Function Attrs: sspstrong uwtable
define internal void @_GLOBAL__sub_I_958.cpp() #7 section ".text.startup" {
  tail call void @_ZNSt8ios_base4InitC1Ev(%"class.std::ios_base::Init"* nonnull align 1 dereferenceable(1) @_ZStL8__ioinit)
  %1 = tail call i32 @__cxa_atexit(void (i8*)* bitcast (void (%"class.std::ios_base::Init"*)* @_ZNSt8ios_base4InitD1Ev to void (i8*)*), i8* getelementptr inbounds (%"class.std::ios_base::Init", %"class.std::ios_base::Init"* @_ZStL8__ioinit, i64 0, i32 0), i8* nonnull @__dso_handle) #9
  ret void
}

; Function Attrs: nofree nosync nounwind readnone willreturn
declare i32 @llvm.vector.reduce.add.v4i32(<4 x i32>) #8


!llvm.module.flags = !{!0, !1, !2, !3}
!llvm.ident = !{!4}

!0 = !{i32 1, !"wchar_size", i32 4}
!1 = !{i32 7, !"PIC Level", i32 2}
!2 = !{i32 7, !"PIE Level", i32 2}
!3 = !{i32 7, !"uwtable", i32 1}
!4 = !{!"clang version 13.0.0"}
!5 = !{!6, !6, i64 0}
!6 = !{!"int", !7, i64 0}
!7 = !{!"omnipotent char", !8, i64 0}
!8 = !{!"Simple C++ TBAA"}
!9 = distinct !{!9, !10, !11}
!10 = !{!"llvm.loop.mustprogress"}
!11 = !{!"llvm.loop.isvectorized", i32 1}
!12 = distinct !{!12, !13}
!13 = !{!"llvm.loop.unroll.disable"}
!14 = distinct !{!14, !10, !15, !11}
!15 = !{!"llvm.loop.unroll.runtime.disable"}
!16 = !{!17, !17, i64 0}
!17 = !{!"vtable pointer", !8, i64 0}
!18 = !{!19, !20, i64 240}
!19 = !{!"_ZTSSt9basic_iosIcSt11char_traitsIcEE", !20, i64 216, !7, i64 224, !21, i64 225, !20, i64 232, !20, i64 240, !20, i64 248, !20, i64 256}
!20 = !{!"any pointer", !7, i64 0}
!21 = !{!"bool", !7, i64 0}
!22 = !{!23, !7, i64 56}
!23 = !{!"_ZTSSt5ctypeIcE", !20, i64 16, !21, i64 24, !20, i64 32, !20, i64 40, !20, i64 48, !7, i64 56, !7, i64 57, !7, i64 313, !7, i64 569}
!24 = !{!7, !7, i64 0}
